target datalayout = "e-m:e-p270:32:32-p271:32:32-p272:64:64-i64:64-i128:128-f80:128-n8:16:32:64-S128"
target triple = "x86_64-pc-linux-gnu"

%struct.lua_State = type { %struct.GCRef, i8, i8, i8, i8, %struct.MRef, %struct.GCRef, ptr, ptr, %struct.MRef, %struct.MRef, %struct.GCRef, %struct.GCRef, ptr, i32 }
%struct.MRef = type { i64 }
%struct.GCRef = type { i64 }
%union.TValue = type { i64 }

; Function Attrs: alwaysinline nounwind uwtable
define internal i32 @lj_strscan_numberobj(ptr noundef %0) #3 {
  %2 = alloca ptr, align 8
  store ptr %0, ptr %2, align 8, !tbaa !48
  %3 = load ptr, ptr %2, align 8, !tbaa !48
  %4 = load i64, ptr %3, align 8, !tbaa !23
  %5 = ashr i64 %4, 47
  %6 = trunc i64 %5 to i32
  %7 = icmp ule i32 %6, -14
  br i1 %7, label %25, label %8

8:                                                ; preds = %1
  %9 = load ptr, ptr %2, align 8, !tbaa !48
  %10 = load i64, ptr %9, align 8, !tbaa !23
  %11 = ashr i64 %10, 47
  %12 = trunc i64 %11 to i32
  %13 = icmp eq i32 %12, -5
  br i1 %13, label %14, label %23

14:                                               ; preds = %8
  %15 = load ptr, ptr %2, align 8, !tbaa !48
  %16 = getelementptr inbounds nuw %struct.GCRef, ptr %15, i32 0, i32 0
  %17 = load i64, ptr %16, align 8, !tbaa !23
  %18 = and i64 %17, 140737488355327
  %19 = inttoptr i64 %18 to ptr
  %20 = load ptr, ptr %2, align 8, !tbaa !48
  %21 = call i32 @lj_strscan_num(ptr noundef %19, ptr noundef %20)
  %22 = icmp ne i32 %21, 0
  br label %23

23:                                               ; preds = %14, %8
  %24 = phi i1 [ false, %8 ], [ %22, %14 ]
  br label %25

25:                                               ; preds = %23, %1
  %26 = phi i1 [ true, %1 ], [ %24, %23 ]
  %27 = zext i1 %26 to i32
  ret i32 %27
}

; Function Attrs: nounwind uwtable
define hidden i32 @lj_lib_checkint(ptr noundef %0, i32 noundef %1) #0 {
  %3 = alloca ptr, align 8
  %4 = alloca i32, align 4
  %5 = alloca ptr, align 8
  %6 = alloca i32, align 4
  store ptr %0, ptr %3, align 8, !tbaa !4
  store i32 %1, ptr %4, align 4, !tbaa !24
  call void @llvm.lifetime.start.p0(i64 8, ptr %5) #9
  %7 = load ptr, ptr %3, align 8, !tbaa !4
  %8 = getelementptr inbounds nuw %struct.lua_State, ptr %7, i32 0, i32 7
  %9 = load ptr, ptr %8, align 8, !tbaa !29
  %10 = load i32, ptr %4, align 4, !tbaa !24
  %11 = sext i32 %10 to i64
  %12 = getelementptr inbounds %union.TValue, ptr %9, i64 %11
  %13 = getelementptr inbounds %union.TValue, ptr %12, i64 -1
  store ptr %13, ptr %5, align 8, !tbaa !48
  %14 = load ptr, ptr %5, align 8, !tbaa !48
  %15 = load ptr, ptr %3, align 8, !tbaa !4
  %16 = getelementptr inbounds nuw %struct.lua_State, ptr %15, i32 0, i32 8
  %17 = load ptr, ptr %16, align 8, !tbaa !28
  %18 = icmp ult ptr %14, %17
  br i1 %18, label %19, label %23

19:                                               ; preds = %2
  %20 = load ptr, ptr %5, align 8, !tbaa !48
  %21 = call i32 @lj_strscan_numberobj(ptr noundef %20)
  %22 = icmp ne i32 %21, 0
  br i1 %22, label %26, label %23

23:                                               ; preds = %19, %2
  %24 = load ptr, ptr %3, align 8, !tbaa !4
  %25 = load i32, ptr %4, align 4, !tbaa !24
  call void @lj_err_argt(ptr noundef %24, i32 noundef %25, i32 noundef 3) #10
  unreachable

26:                                               ; preds = %19
  call void @llvm.lifetime.start.p0(i64 4, ptr %6) #9
  %27 = load ptr, ptr %5, align 8, !tbaa !48
  %28 = load double, ptr %27, align 8, !tbaa !23
  %29 = fptosi double %28 to i32
  store i32 %29, ptr %6, align 4, !tbaa !24
  %30 = load i32, ptr %6, align 4, !tbaa !24
  call void @llvm.lifetime.end.p0(i64 4, ptr %6) #9
  call void @llvm.lifetime.end.p0(i64 8, ptr %5) #9
  ret i32 %30
}