; Function Attrs: nounwind uwtable
define hidden i32 @lj_lib_checkint(ptr noundef %0, i32 noundef %1) local_unnamed_addr #0 {
  %3 = getelementptr inbounds nuw i8, ptr %0, i64 32
  %4 = load ptr, ptr %3, align 8, !tbaa !17
  %5 = sext i32 %1 to i64
  %6 = getelementptr inbounds %union.TValue, ptr %4, i64 %5
  %7 = getelementptr inbounds i8, ptr %6, i64 -8
  %8 = getelementptr inbounds nuw i8, ptr %0, i64 40
  %9 = load ptr, ptr %8, align 8, !tbaa !16
  %10 = icmp ult ptr %7, %9
  br i1 %10, label %11, label %lj_strscan_numberobj.exit.thread

11:                                               ; preds = %2
  %12 = load i64, ptr %7, align 8
  %13 = ashr i64 %12, 47
  %14 = icmp ult i64 %13, -13
  %15 = bitcast i64 %12 to double
  br i1 %14, label %lj_strscan_numberobj.exit.thread9, label %16

16:                                               ; preds = %11
  %17 = icmp eq i64 %13, -5
  br i1 %17, label %lj_strscan_numberobj.exit, label %lj_strscan_numberobj.exit.thread

lj_strscan_numberobj.exit:                        ; preds = %16
  %18 = and i64 %12, 140737488355327
  %19 = inttoptr i64 %18 to ptr
  %20 = tail call i32 @lj_strscan_num(ptr noundef %19, ptr noundef nonnull %7) #8
  %.not11 = icmp eq i32 %20, 0
  br i1 %.not11, label %lj_strscan_numberobj.exit.thread, label %lj_strscan_numberobj.exit.lj_strscan_numberobj.exit.thread9_crit_edge

lj_strscan_numberobj.exit.lj_strscan_numberobj.exit.thread9_crit_edge: ; preds = %lj_strscan_numberobj.exit
  %.pre = load double, ptr %7, align 8, !tbaa !14
  br label %lj_strscan_numberobj.exit.thread9

lj_strscan_numberobj.exit.thread:                 ; preds = %16, %lj_strscan_numberobj.exit, %2
  tail call void @lj_err_argt(ptr noundef nonnull %0, i32 noundef %1, i32 noundef 3) #9
  unreachable

lj_strscan_numberobj.exit.thread9:                ; preds = %lj_strscan_numberobj.exit.lj_strscan_numberobj.exit.thread9_crit_edge, %11
  %21 = phi double [ %.pre, %lj_strscan_numberobj.exit.lj_strscan_numberobj.exit.thread9_crit_edge ], [ %15, %11 ]
  %22 = fptosi double %21 to i32
  ret i32 %22
}